target datalayout = "e-m:e-p270:32:32-p271:32:32-p272:64:64-i64:64-i128:128-f80:128-n8:16:32:64-S128"
target triple = "x86_64-pc-linux-gnu"

%union.pthread_mutex_t = type { %struct.__pthread_mutex_s }
%struct.__pthread_mutex_s = type { i32, i32, i32, i32, i32, i16, i16, %struct.__pthread_internal_list }
%struct.__pthread_internal_list = type { ptr, ptr }
%struct.wolfSSL_RefWithMutex = type { %union.pthread_mutex_t, i32 }
%struct.WOLFSSL_CTX = type <{ ptr, %struct.wolfSSL_RefWithMutex, i32, [4 x i8], %struct.WOLFSSL_BUFFER_INFO, %struct.WOLFSSL_BUFFER_INFO, ptr, ptr, i32, [4 x i8], ptr, i8, i8, [2 x i8], i32, i32, [4 x i8], ptr, ptr, ptr, i8, i16, i8, i8, i8, i16, i16, i16, i16, [2 x i8], i64, ptr, ptr, ptr, ptr, i32, i32, i16, [2 x i8], i32, [10 x i16], i8, [3 x i8], ptr, ptr, i32, [4 x i8], ptr, i8, [7 x i8] }>
%struct.WOLFSSL_BUFFER_INFO = type { ptr, i32 }

; Function Attrs: nounwind uwtable
define i32 @wolfSSL_CTX_UseSupportedCurve(ptr noundef %0, i16 noundef zeroext %1) #0 {
  %3 = alloca i32, align 4
  %4 = alloca ptr, align 8
  %5 = alloca i16, align 2
  store ptr %0, ptr %4, align 8, !tbaa !24
  store i16 %1, ptr %5, align 2, !tbaa !94
  %6 = load ptr, ptr %4, align 8, !tbaa !24
  %7 = icmp eq ptr %6, null
  br i1 %7, label %12, label %8

8:                                                ; preds = %2
  %9 = load i16, ptr %5, align 2, !tbaa !94
  %10 = call i32 @isValidCurveGroup(i16 noundef zeroext %9)
  %11 = icmp ne i32 %10, 0
  br i1 %11, label %13, label %12

12:                                               ; preds = %8, %2
  store i32 -173, ptr %3, align 4
  br label %23

13:                                               ; preds = %8
  %14 = load ptr, ptr %4, align 8, !tbaa !24
  %15 = getelementptr inbounds nuw %struct.WOLFSSL_CTX, ptr %14, i32 0, i32 48
  store i8 1, ptr %15, align 8, !tbaa !189
  %16 = load ptr, ptr %4, align 8, !tbaa !24
  %17 = getelementptr inbounds nuw %struct.WOLFSSL_CTX, ptr %16, i32 0, i32 47
  %18 = load i16, ptr %5, align 2, !tbaa !94
  %19 = load ptr, ptr %4, align 8, !tbaa !24
  %20 = getelementptr inbounds nuw %struct.WOLFSSL_CTX, ptr %19, i32 0, i32 19
  %21 = load ptr, ptr %20, align 8, !tbaa !136
  %22 = call i32 @TLSX_UseSupportedCurve(ptr noundef %17, i16 noundef zeroext %18, ptr noundef %21)
  store i32 %22, ptr %3, align 4
  br label %23

23:                                               ; preds = %13, %12
  %24 = load i32, ptr %3, align 4
  ret i32 %24
}