; Function Attrs: nounwind uwtable
define i32 @wolfSSL_CTX_UseSupportedCurve(ptr noundef %0, i16 noundef zeroext %1) local_unnamed_addr #0 {
  %3 = icmp eq ptr %0, null
  br i1 %3, label %12, label %4

4:                                                ; preds = %2
  %5 = tail call fastcc i32 @isValidCurveGroup(i16 noundef zeroext %1)
  %.not = icmp eq i32 %5, 0
  br i1 %.not, label %12, label %6

6:                                                ; preds = %4
  %7 = getelementptr inbounds nuw i8, ptr %0, i64 296
  store i8 1, ptr %7, align 8, !tbaa !168
  %8 = getelementptr inbounds nuw i8, ptr %0, i64 288
  %9 = getelementptr inbounds nuw i8, ptr %0, i64 160
  %10 = load ptr, ptr %9, align 8, !tbaa !116
  %11 = tail call i32 @TLSX_UseSupportedCurve(ptr noundef nonnull %8, i16 noundef zeroext %1, ptr noundef %10) #22
  br label %12

12:                                               ; preds = %2, %4, %6
  %.0 = phi i32 [ %11, %6 ], [ -173, %4 ], [ -173, %2 ]
  ret i32 %.0
}